
test.elf:     file format elf32-tradlittlemips


Disassembly of section .text:

80000000 <_ftext>:
80000000:	3c1d807e 	lui	sp,0x807e
80000004:	3c078060 	lui	a3,0x8060
80000008:	00001025 	move	v0,zero
8000000c:	3c050001 	lui	a1,0x1
80000010:	00e01825 	move	v1,a3
80000014:	70422002 	mul	a0,v0,v0
80000018:	24630004 	addiu	v1,v1,4
8000001c:	24420001 	addiu	v0,v0,1
80000020:	1445fffc 	bne	v0,a1,80000014 <_ftext+0x14>
80000024:	ac64fffc 	sw	a0,-4(v1)
80000028:	3c0a8040 	lui	t2,0x8040
8000002c:	3c098050 	lui	t1,0x8050
80000030:	00004025 	move	t0,zero
80000034:	3c0b0010 	lui	t3,0x10
80000038:	01481021 	addu	v0,t2,t0
8000003c:	00001825 	move	v1,zero
80000040:	3405ffff 	li	a1,0xffff
80000044:	8c460000 	lw	a2,0(v0)
80000048:	00a32021 	addu	a0,a1,v1
8000004c:	24840001 	addiu	a0,a0,1
80000050:	00042043 	sra	a0,a0,0x1
80000054:	00041080 	sll	v0,a0,0x2
80000058:	00e21021 	addu	v0,a3,v0
8000005c:	8c420000 	lw	v0,0(v0)
80000060:	00c2102b 	sltu	v0,a2,v0
80000064:	1040000b 	beqz	v0,80000094 <_ftext+0x94>
80000068:	00000000 	nop
8000006c:	1000001e 	b	800000e8 <_ftext+0xe8>
80000070:	00801025 	move	v0,a0
80000074:	00021043 	sra	v0,v0,0x1
80000078:	00021880 	sll	v1,v0,0x2
8000007c:	00e31821 	addu	v1,a3,v1
80000080:	8c630000 	lw	v1,0(v1)
80000084:	00c3182b 	sltu	v1,a2,v1
80000088:	1460000c 	bnez	v1,800000bc <_ftext+0xbc>
8000008c:	00801825 	move	v1,a0
80000090:	00402025 	move	a0,v0
80000094:	00a41021 	addu	v0,a1,a0
80000098:	0085182a 	slt	v1,a0,a1
8000009c:	1460fff5 	bnez	v1,80000074 <_ftext+0x74>
800000a0:	24420001 	addiu	v0,v0,1
800000a4:	01281021 	addu	v0,t1,t0
800000a8:	25080004 	addiu	t0,t0,4
800000ac:	150bffe2 	bne	t0,t3,80000038 <_ftext+0x38>
800000b0:	ac440000 	sw	a0,0(v0)
800000b4:	03e00008 	jr	ra
800000b8:	00001025 	move	v0,zero
800000bc:	2445ffff 	addiu	a1,v0,-1
800000c0:	0065102a 	slt	v0,v1,a1
800000c4:	1440ffe1 	bnez	v0,8000004c <_ftext+0x4c>
800000c8:	00a32021 	addu	a0,a1,v1
800000cc:	01281021 	addu	v0,t1,t0
800000d0:	25080004 	addiu	t0,t0,4
800000d4:	00602025 	move	a0,v1
800000d8:	150bffd7 	bne	t0,t3,80000038 <_ftext+0x38>
800000dc:	ac440000 	sw	a0,0(v0)
800000e0:	1000fff4 	b	800000b4 <_ftext+0xb4>
800000e4:	00000000 	nop
800000e8:	1000fff5 	b	800000c0 <_ftext+0xc0>
800000ec:	2445ffff 	addiu	a1,v0,-1

800000f0 <bsearchr>:
800000f0:	00801025 	move	v0,a0
800000f4:	3c098060 	lui	t1,0x8060
800000f8:	0045182a 	slt	v1,v0,a1
800000fc:	10600019 	beqz	v1,80000164 <bsearchr+0x74>
80000100:	00a21821 	addu	v1,a1,v0
80000104:	24630001 	addiu	v1,v1,1
80000108:	00031843 	sra	v1,v1,0x1
8000010c:	00033880 	sll	a3,v1,0x2
80000110:	01273821 	addu	a3,t1,a3
80000114:	8ce70000 	lw	a3,0(a3)
80000118:	00c7382b 	sltu	a3,a2,a3
8000011c:	14e0000d 	bnez	a3,80000154 <bsearchr+0x64>
80000120:	00000000 	nop
80000124:	00a34021 	addu	t0,a1,v1
80000128:	0065382a 	slt	a3,v1,a1
8000012c:	00601025 	move	v0,v1
80000130:	10e0000c 	beqz	a3,80000164 <bsearchr+0x74>
80000134:	25030001 	addiu	v1,t0,1
80000138:	00031843 	sra	v1,v1,0x1
8000013c:	00032080 	sll	a0,v1,0x2
80000140:	01242021 	addu	a0,t1,a0
80000144:	8c840000 	lw	a0,0(a0)
80000148:	00c4202b 	sltu	a0,a2,a0
8000014c:	1080fff5 	beqz	a0,80000124 <bsearchr+0x34>
80000150:	00000000 	nop
80000154:	2465ffff 	addiu	a1,v1,-1
80000158:	0045182a 	slt	v1,v0,a1
8000015c:	1460ffe9 	bnez	v1,80000104 <bsearchr+0x14>
80000160:	00a21821 	addu	v1,a1,v0
80000164:	03e00008 	jr	ra
80000168:	00000000 	nop
