
kernel.elf:     file format elf32-tradlittlemips


Disassembly of section .text:

80000000 <INITLOCATE>:
80000000:	00 80 1a 3c 2c 20 5a 27 08 00 40 03 00 00 00 00     ...<, Z'..@.....
	...

80002000 <monitor_version>:
80002000:	494e4f4d 	0x494e4f4d
80002004:	20524f54 	addi	s2,v0,20308
80002008:	20726f66 	addi	s2,v1,28518
8000200c:	5350494d 	beql	k0,s0,80014544 <UTEST_4MDCT+0x11340>
80002010:	2d203233 	sltiu	zero,t1,12851
80002014:	696e6920 	0x696e6920
80002018:	6c616974 	0x6c616974
8000201c:	64657a69 	0x64657a69
80002020:	0000002e 	0x2e
80002024:	807f0000 	lb	ra,0(v1)
80002028:	807f008c 	lb	ra,140(v1)

8000202c <START>:
8000202c:	3c1a807f 275a0000 3c1b807f 277b008c     ...<..Z'...<..{'

8000203c <bss_init>:
8000203c:	135b0005 	beq	k0,k1,80002054 <bss_init_done>
80002040:	00000000 	nop
80002044:	af400000 	sw	zero,0(k0)
80002048:	275a0004 	addiu	k0,k0,4
8000204c:	1000fffb 	b	8000203c <bss_init>
80002050:	00000000 	nop

80002054 <bss_init_done>:
80002054:	3c1d8080 	lui	sp,0x8080
80002058:	27bd0000 	addiu	sp,sp,0
8000205c:	03a0f025 	move	s8,sp
80002060:	3c08807f 	lui	t0,0x807f
80002064:	25080000 	addiu	t0,t0,0
80002068:	3c09807f 	lui	t1,0x807f
8000206c:	ad280070 	sw	t0,112(t1)
80002070:	3c09807f 	lui	t1,0x807f
80002074:	ad280074 	sw	t0,116(t1)
80002078:	34080020 	li	t0,0x20
8000207c:	2508ffff 	addiu	t0,t0,-1
80002080:	27bdfffc 	addiu	sp,sp,-4
80002084:	afa00000 	sw	zero,0(sp)
80002088:	1500fffc 	bnez	t0,8000207c <bss_init_done+0x28>
8000208c:	00000000 	nop
80002090:	3c08807f 	lui	t0,0x807f
80002094:	25080080 	addiu	t0,t0,128
80002098:	ad1d0000 	sw	sp,0(t0)
8000209c:	03a07025 	move	t6,sp
800020a0:	34080020 	li	t0,0x20
800020a4:	2508ffff 	addiu	t0,t0,-1
800020a8:	27bdfffc 	addiu	sp,sp,-4
800020ac:	afa00000 	sw	zero,0(sp)
800020b0:	1500fffc 	bnez	t0,800020a4 <bss_init_done+0x50>
800020b4:	00000000 	nop
800020b8:	3c08807f 	lui	t0,0x807f
800020bc:	25080080 	addiu	t0,t0,128
800020c0:	ad1d0004 	sw	sp,4(t0)
800020c4:	addd007c 	sw	sp,124(t6)
800020c8:	3c0a807f 	lui	t2,0x807f
800020cc:	254a0084 	addiu	t2,t2,132
800020d0:	8d4a0000 	lw	t2,0(t2)
800020d4:	3c09807f 	lui	t1,0x807f
800020d8:	ad2a0088 	sw	t2,136(t1)
800020dc:	08000839 	j	800020e4 <WELCOME>
800020e0:	00000000 	nop

800020e4 <WELCOME>:
800020e4:	3c108000 	lui	s0,0x8000
800020e8:	26102000 	addiu	s0,s0,8192
800020ec:	82040000 	lb	a0,0(s0)
800020f0:	26100001 	addiu	s0,s0,1
800020f4:	0c0008ee 	jal	800023b8 <WRITESERIAL>
800020f8:	00000000 	nop
800020fc:	82040000 	lb	a0,0(s0)
80002100:	1480fffb 	bnez	a0,800020f0 <WELCOME+0xc>
80002104:	00000000 	nop
80002108:	08000850 	j	80002140 <SHELL>
8000210c:	00000000 	nop

80002110 <IDLELOOP>:
	...
80002138:	08000844 	j	80002110 <IDLELOOP>
8000213c:	00000000 	nop

80002140 <SHELL>:
80002140:	0c0008f9 00000000 34080052 1048000c     ........R..4..H.
80002150:	00000000 34080044 1048001a 00000000     ....D..4..H.....
80002160:	34080041 1048002c 00000000 34080047     A..4,.H.....G..4
80002170:	1048003f 00000000 080008ec 00000000     ?.H.............

80002180 <.OP_R>:
80002180:	27bdfff8 	addiu	sp,sp,-8
80002184:	afb00000 	sw	s0,0(sp)
80002188:	afb10004 	sw	s1,4(sp)
8000218c:	3c10807f 	lui	s0,0x807f
80002190:	34110078 	li	s1,0x78
80002194:	82040000 	lb	a0,0(s0)
80002198:	2631ffff 	addiu	s1,s1,-1
8000219c:	0c0008ee 	jal	800023b8 <WRITESERIAL>
800021a0:	00000000 	nop
800021a4:	26100001 	addiu	s0,s0,1
800021a8:	1620fffa 	bnez	s1,80002194 <.OP_R+0x14>
800021ac:	00000000 	nop
800021b0:	8fb00000 	lw	s0,0(sp)
800021b4:	8fb10004 	lw	s1,4(sp)
800021b8:	27bd0008 	addiu	sp,sp,8
800021bc:	080008ec 	j	800023b0 <.DONE>
800021c0:	00000000 	nop

800021c4 <.OP_D>:
800021c4:	27bdfff8 	addiu	sp,sp,-8
800021c8:	afb00000 	sw	s0,0(sp)
800021cc:	afb10004 	sw	s1,4(sp)
800021d0:	0c000904 	jal	80002410 <READSERIALWORD>
800021d4:	00000000 	nop
800021d8:	00408025 	move	s0,v0
800021dc:	0c000904 	jal	80002410 <READSERIALWORD>
800021e0:	00000000 	nop
800021e4:	00408825 	move	s1,v0
800021e8:	82040000 	lb	a0,0(s0)
800021ec:	2631ffff 	addiu	s1,s1,-1
800021f0:	0c0008ee 	jal	800023b8 <WRITESERIAL>
800021f4:	00000000 	nop
800021f8:	26100001 	addiu	s0,s0,1
800021fc:	1620fffa 	bnez	s1,800021e8 <.OP_D+0x24>
80002200:	00000000 	nop
80002204:	8fb00000 	lw	s0,0(sp)
80002208:	8fb10004 	lw	s1,4(sp)
8000220c:	27bd0008 	addiu	sp,sp,8
80002210:	080008ec 	j	800023b0 <.DONE>
80002214:	00000000 	nop

80002218 <.OP_A>:
80002218:	27bdfff8 	addiu	sp,sp,-8
8000221c:	afb00000 	sw	s0,0(sp)
80002220:	afb10004 	sw	s1,4(sp)
80002224:	0c000904 	jal	80002410 <READSERIALWORD>
80002228:	00000000 	nop
8000222c:	00408025 	move	s0,v0
80002230:	0c000904 	jal	80002410 <READSERIALWORD>
80002234:	00000000 	nop
80002238:	00408825 	move	s1,v0
8000223c:	00118882 	srl	s1,s1,0x2
80002240:	0c000904 	jal	80002410 <READSERIALWORD>
80002244:	00000000 	nop
80002248:	ae020000 	sw	v0,0(s0)
8000224c:	2631ffff 	addiu	s1,s1,-1
80002250:	26100004 	addiu	s0,s0,4
80002254:	1620fffa 	bnez	s1,80002240 <.OP_A+0x28>
80002258:	00000000 	nop
8000225c:	8fb00000 	lw	s0,0(sp)
80002260:	8fb10004 	lw	s1,4(sp)
80002264:	27bd0008 	addiu	sp,sp,8
80002268:	080008ec 	j	800023b0 <.DONE>
8000226c:	00000000 	nop

80002270 <.OP_G>:
80002270:	0c000904 	jal	80002410 <READSERIALWORD>
80002274:	00000000 	nop
80002278:	34040006 	li	a0,0x6
8000227c:	0c0008ee 	jal	800023b8 <WRITESERIAL>
80002280:	00000000 	nop
80002284:	0040d025 	move	k0,v0
80002288:	3c1f807f 	lui	ra,0x807f
8000228c:	27ff0000 	addiu	ra,ra,0
80002290:	afe20078 	sw	v0,120(ra)
80002294:	affd007c 	sw	sp,124(ra)
80002298:	8fe10000 	lw	at,0(ra)
8000229c:	8fe20004 	lw	v0,4(ra)
800022a0:	8fe30008 	lw	v1,8(ra)
800022a4:	8fe4000c 	lw	a0,12(ra)
800022a8:	8fe50010 	lw	a1,16(ra)
800022ac:	8fe60014 	lw	a2,20(ra)
800022b0:	8fe70018 	lw	a3,24(ra)
800022b4:	8fe8001c 	lw	t0,28(ra)
800022b8:	8fe90020 	lw	t1,32(ra)
800022bc:	8fea0024 	lw	t2,36(ra)
800022c0:	8feb0028 	lw	t3,40(ra)
800022c4:	8fec002c 	lw	t4,44(ra)
800022c8:	8fed0030 	lw	t5,48(ra)
800022cc:	8fee0034 	lw	t6,52(ra)
800022d0:	8fef0038 	lw	t7,56(ra)
800022d4:	8ff0003c 	lw	s0,60(ra)
800022d8:	8ff10040 	lw	s1,64(ra)
800022dc:	8ff20044 	lw	s2,68(ra)
800022e0:	8ff30048 	lw	s3,72(ra)
800022e4:	8ff4004c 	lw	s4,76(ra)
800022e8:	8ff50050 	lw	s5,80(ra)
800022ec:	8ff60054 	lw	s6,84(ra)
800022f0:	8ff70058 	lw	s7,88(ra)
800022f4:	8ff8005c 	lw	t8,92(ra)
800022f8:	8ff90060 	lw	t9,96(ra)
800022fc:	8ffc006c 	lw	gp,108(ra)
80002300:	8ffd0070 	lw	sp,112(ra)
80002304:	8ffe0074 	lw	s8,116(ra)
80002308:	3c1f8000 	lui	ra,0x8000
8000230c:	27ff231c 	addiu	ra,ra,8988
80002310:	00000000 	nop
80002314:	03400008 	jr	k0
80002318:	00000000 	nop

8000231c <.USERRET2>:
8000231c:	00000000 	nop
80002320:	3c1f807f 	lui	ra,0x807f
80002324:	27ff0000 	addiu	ra,ra,0
80002328:	afe10000 	sw	at,0(ra)
8000232c:	afe20004 	sw	v0,4(ra)
80002330:	afe30008 	sw	v1,8(ra)
80002334:	afe4000c 	sw	a0,12(ra)
80002338:	afe50010 	sw	a1,16(ra)
8000233c:	afe60014 	sw	a2,20(ra)
80002340:	afe70018 	sw	a3,24(ra)
80002344:	afe8001c 	sw	t0,28(ra)
80002348:	afe90020 	sw	t1,32(ra)
8000234c:	afea0024 	sw	t2,36(ra)
80002350:	afeb0028 	sw	t3,40(ra)
80002354:	afec002c 	sw	t4,44(ra)
80002358:	afed0030 	sw	t5,48(ra)
8000235c:	afee0034 	sw	t6,52(ra)
80002360:	afef0038 	sw	t7,56(ra)
80002364:	aff0003c 	sw	s0,60(ra)
80002368:	aff10040 	sw	s1,64(ra)
8000236c:	aff20044 	sw	s2,68(ra)
80002370:	aff30048 	sw	s3,72(ra)
80002374:	aff4004c 	sw	s4,76(ra)
80002378:	aff50050 	sw	s5,80(ra)
8000237c:	aff60054 	sw	s6,84(ra)
80002380:	aff70058 	sw	s7,88(ra)
80002384:	aff8005c 	sw	t8,92(ra)
80002388:	aff90060 	sw	t9,96(ra)
8000238c:	affc006c 	sw	gp,108(ra)
80002390:	affd0070 	sw	sp,112(ra)
80002394:	affe0074 	sw	s8,116(ra)
80002398:	8ffd007c 	lw	sp,124(ra)
8000239c:	34040007 	li	a0,0x7
800023a0:	0c0008ee 	jal	800023b8 <WRITESERIAL>
800023a4:	00000000 	nop
800023a8:	080008ec 	j	800023b0 <.DONE>
800023ac:	00000000 	nop

800023b0 <.DONE>:
800023b0:	08000850 	j	80002140 <SHELL>
800023b4:	00000000 	nop

800023b8 <WRITESERIAL>:
800023b8:	3c09bfd0                                ...<

800023bc <.TESTW>:
800023bc:	812803fc 	lb	t0,1020(t1)
800023c0:	31080001 	andi	t0,t0,0x1
800023c4:	15000003 	bnez	t0,800023d4 <.WSERIAL>
800023c8:	00000000 	nop
800023cc:	080008ef 	j	800023bc <.TESTW>
800023d0:	00000000 	nop

800023d4 <.WSERIAL>:
800023d4:	3c09bfd0 	lui	t1,0xbfd0
800023d8:	a12403f8 	sb	a0,1016(t1)
800023dc:	03e00008 	jr	ra
800023e0:	00000000 	nop

800023e4 <READSERIAL>:
800023e4:	3c09bfd0                                ...<

800023e8 <.TESTR>:
800023e8:	812803fc 	lb	t0,1020(t1)
800023ec:	31080002 	andi	t0,t0,0x2
800023f0:	15000003 	bnez	t0,80002400 <.RSERIAL>
800023f4:	00000000 	nop
800023f8:	080008fa 	j	800023e8 <.TESTR>
800023fc:	00000000 	nop

80002400 <.RSERIAL>:
80002400:	3c09bfd0 	lui	t1,0xbfd0
80002404:	812203f8 	lb	v0,1016(t1)
80002408:	03e00008 	jr	ra
8000240c:	00000000 	nop

80002410 <READSERIALWORD>:
80002410:	27bdffec afbf0000 afb00004 afb10008     ...'............
80002420:	afb2000c afb30010 0c0008f9 00000000     ................
80002430:	00028025 0c0008f9 00000000 00028825     %...........%...
80002440:	0c0008f9 00000000 00029025 0c0008f9     ........%.......
80002450:	00000000 00029825 321000ff 327300ff     ....%......2..s2
80002460:	325200ff 323100ff 00131025 00021200     ..R2..12%.......
80002470:	00521025 00021200 00511025 00021200     %.R.....%.Q.....
80002480:	00501025 8fbf0000 8fb00004 8fb10008     %.P.............
80002490:	8fb2000c 8fb30010 27bd0014 03e00008     ...........'....
	...

80003000 <UTEST_SIMPLE>:
80003000:	24420001 	addiu	v0,v0,1
80003004:	03e00008 	jr	ra
80003008:	00000000 	nop

8000300c <UTEST_STREAM>:
8000300c:	3c048010 	lui	a0,0x8010
80003010:	3c058040 	lui	a1,0x8040
80003014:	3c060030 	lui	a2,0x30
80003018:	00863021 	addu	a2,a0,a2

8000301c <stream_next>:
8000301c:	10860005 	beq	a0,a2,80003034 <stream_end>
80003020:	24a50004 	addiu	a1,a1,4
80003024:	8c820000 	lw	v0,0(a0)
80003028:	aca2fffc 	sw	v0,-4(a1)
8000302c:	1000fffb 	b	8000301c <stream_next>
80003030:	24840004 	addiu	a0,a0,4

80003034 <stream_end>:
80003034:	03e00008 	jr	ra
80003038:	00000000 	nop

8000303c <UTEST_MATRIX>:
8000303c:	3c048040 	lui	a0,0x8040
80003040:	3c058041 	lui	a1,0x8041
80003044:	3c068042 	lui	a2,0x8042
80003048:	24070060 	li	a3,96
8000304c:	00001825 	move	v1,zero

80003050 <loop1>:
80003050:	1067001a 	beq	v1,a3,800030bc <loop1end>
80003054:	00034080 	sll	t0,v1,0x2
80003058:	00035240 	sll	t2,v1,0x9
8000305c:	00884021 	addu	t0,a0,t0
80003060:	00aa5021 	addu	t2,a1,t2
80003064:	00004825 	move	t1,zero

80003068 <loop2>:
80003068:	11270012 	beq	t1,a3,800030b4 <loop2end>
8000306c:	00091240 	sll	v0,t1,0x9
80003070:	8d0f0000 	lw	t7,0(t0)
80003074:	00c21021 	addu	v0,a2,v0
80003078:	01406025 	move	t4,t2
8000307c:	00005825 	move	t3,zero

80003080 <loop3>:
80003080:	11670009 	beq	t3,a3,800030a8 <loop3end>
80003084:	256b0001 	addiu	t3,t3,1
80003088:	8d8d0000 	lw	t5,0(t4)
8000308c:	8c4e0000 	lw	t6,0(v0)
80003090:	71ed6802 	mul	t5,t7,t5
80003094:	24420004 	addiu	v0,v0,4
80003098:	258c0004 	addiu	t4,t4,4
8000309c:	01cd6821 	addu	t5,t6,t5
800030a0:	1000fff7 	b	80003080 <loop3>
800030a4:	ac4dfffc 	sw	t5,-4(v0)

800030a8 <loop3end>:
800030a8:	25290001 	addiu	t1,t1,1
800030ac:	1000ffee 	b	80003068 <loop2>
800030b0:	25080200 	addiu	t0,t0,512

800030b4 <loop2end>:
800030b4:	1000ffe6 	b	80003050 <loop1>
800030b8:	24630001 	addiu	v1,v1,1

800030bc <loop1end>:
800030bc:	03e00008 	jr	ra
800030c0:	00000000 	nop

800030c4 <UTEST_CRYPTONIGHT>:
800030c4:	3c048040 	lui	a0,0x8040
800030c8:	3c05dead 	lui	a1,0xdead
800030cc:	34a5beef 	ori	a1,a1,0xbeef
800030d0:	3c06face 	lui	a2,0xface
800030d4:	34c6b00c 	ori	a2,a2,0xb00c
800030d8:	3c070010 	lui	a3,0x10
800030dc:	00041825 	or	v1,zero,a0
800030e0:	00001025 	move	v0,zero
800030e4:	3c080008 	lui	t0,0x8

800030e8 <fill_next>:
800030e8:	ac620000 	sw	v0,0(v1)
800030ec:	24420001 	addiu	v0,v0,1
800030f0:	1448fffd 	bne	v0,t0,800030e8 <fill_next>
800030f4:	24630004 	addiu	v1,v1,4
800030f8:	00004825 	move	t1,zero
800030fc:	3c0a0007 	lui	t2,0x7
80003100:	354affff 	ori	t2,t2,0xffff

80003104 <crn_hext>:
80003104:	00aa4024 	and	t0,a1,t2
80003108:	00084080 	sll	t0,t0,0x2
8000310c:	00884021 	addu	t0,a0,t0
80003110:	8d020000 	lw	v0,0(t0)
80003114:	00051842 	srl	v1,a1,0x1
80003118:	00021040 	sll	v0,v0,0x1
8000311c:	00431026 	xor	v0,v0,v1
80003120:	004a1824 	and	v1,v0,t2
80003124:	00463026 	xor	a2,v0,a2
80003128:	00031880 	sll	v1,v1,0x2
8000312c:	ad060000 	sw	a2,0(t0)
80003130:	00831821 	addu	v1,a0,v1
80003134:	8c680000 	lw	t0,0(v1)
80003138:	00023025 	or	a2,zero,v0
8000313c:	70481002 	mul	v0,v0,t0
80003140:	25290001 	addiu	t1,t1,1
80003144:	00452821 	addu	a1,v0,a1
80003148:	ac650000 	sw	a1,0(v1)
8000314c:	14e9ffed 	bne	a3,t1,80003104 <crn_hext>
80003150:	01052826 	xor	a1,t0,a1

80003154 <crn_end>:
80003154:	03e00008 	jr	ra
80003158:	00000000 	nop

8000315c <UTEST_1PTB>:
8000315c:	3c080400 	lui	t0,0x400
	...
8000316c:	2508ffff 	addiu	t0,t0,-1
80003170:	34090000 	li	t1,0x0
80003174:	340a0001 	li	t2,0x1
80003178:	340b0002 	li	t3,0x2
8000317c:	1500fffb 	bnez	t0,8000316c <UTEST_1PTB+0x10>
80003180:	00000000 	nop
80003184:	00000000 	nop
80003188:	03e00008 	jr	ra
8000318c:	00000000 	nop

80003190 <UTEST_2DCT>:
80003190:	3c080100 	lui	t0,0x100
80003194:	34090001 	li	t1,0x1
80003198:	340a0002 	li	t2,0x2
8000319c:	340b0003 	li	t3,0x3
800031a0:	01495026 	xor	t2,t2,t1
800031a4:	012a4826 	xor	t1,t1,t2
800031a8:	01495026 	xor	t2,t2,t1
800031ac:	016a5826 	xor	t3,t3,t2
800031b0:	014b5026 	xor	t2,t2,t3
800031b4:	016a5826 	xor	t3,t3,t2
800031b8:	012b4826 	xor	t1,t1,t3
800031bc:	01695826 	xor	t3,t3,t1
800031c0:	012b4826 	xor	t1,t1,t3
800031c4:	2508ffff 	addiu	t0,t0,-1
800031c8:	1500fff5 	bnez	t0,800031a0 <UTEST_2DCT+0x10>
800031cc:	00000000 	nop
800031d0:	03e00008 	jr	ra
800031d4:	00000000 	nop

800031d8 <UTEST_3CCT>:
800031d8:	3c080400 	lui	t0,0x400
800031dc:	15000003 	bnez	t0,800031ec <UTEST_3CCT+0x14>
800031e0:	00000000 	nop
800031e4:	03e00008 	jr	ra
800031e8:	00000000 	nop
800031ec:	08000c7d 	j	800031f4 <UTEST_3CCT+0x1c>
800031f0:	00000000 	nop
800031f4:	2508ffff 	addiu	t0,t0,-1
800031f8:	08000c77 	j	800031dc <UTEST_3CCT+0x4>
800031fc:	2508ffff 	addiu	t0,t0,-1
80003200:	00000000 	nop

80003204 <UTEST_4MDCT>:
80003204:	3c080200 	lui	t0,0x200
80003208:	27bdfffc 	addiu	sp,sp,-4
8000320c:	afa80000 	sw	t0,0(sp)
80003210:	8fa90000 	lw	t1,0(sp)
80003214:	2529ffff 	addiu	t1,t1,-1
80003218:	afa90000 	sw	t1,0(sp)
8000321c:	8fa80000 	lw	t0,0(sp)
80003220:	1500fffa 	bnez	t0,8000320c <UTEST_4MDCT+0x8>
80003224:	00000000 	nop
80003228:	27bd0004 	addiu	sp,sp,4
8000322c:	03e00008 	jr	ra
80003230:	00000000 	nop
