
lab2.elf:     file format elf32-tradlittlemips


Disassembly of section .text:

80000000 <_ftext>:
80000000:	10000007 	b	80000020 <fib>
80000004:	34000000 	li	zero,0x0

80000008 <info>:
80000008:	20626946 	addi	v0,v1,26950
8000000c:	696e6946 	0x696e6946
80000010:	002e6873 	tltu	at,t6,0x1a1

80000014 <feed>:
80000014:	206c6c41 	addi	t4,v1,27713
80000018:	53534150 	beql	k0,s3,8001055c <end+0xf8ac>
8000001c:	00000021 	move	zero,zero

80000020 <fib>:
80000020:	34080001 	li	t0,0x1
80000024:	34090001 	li	t1,0x1
80000028:	3c048040 	lui	a0,0x8040
8000002c:	248c0100 	addiu	t4,a0,256

80000030 <loop0>:
80000030:	01095021 	addu	t2,t0,t1
80000034:	35280000 	ori	t0,t1,0x0
80000038:	35490000 	ori	t1,t2,0x0
8000003c:	ac890000 	sw	t1,0(a0)
80000040:	8c8b0000 	lw	t3,0(a0)
80000044:	152b031a 	bne	t1,t3,80000cb0 <end>
80000048:	34000000 	li	zero,0x0
8000004c:	24840004 	addiu	a0,a0,4
80000050:	148cfff7 	bne	a0,t4,80000030 <loop0>
80000054:	34000000 	li	zero,0x0

80000058 <WRITESERIAL>:
80000058:	3c108000 	lui	s0,0x8000
8000005c:	26100008 	addiu	s0,s0,8
80000060:	82040000 	lb	a0,0(s0)
80000064:	3c11bfd0 	lui	s1,0xbfd0

80000068 <loop1>:
80000068:	26100001 	addiu	s0,s0,1

8000006c <.TESTW>:
8000006c:	822803fc 	lb	t0,1020(s1)
80000070:	31080001 	andi	t0,t0,0x1
80000074:	1100fffd 	beqz	t0,8000006c <.TESTW>
80000078:	34000000 	li	zero,0x0
8000007c:	a22403f8 	sb	a0,1016(s1)
80000080:	82040000 	lb	a0,0(s0)
80000084:	1480fff8 	bnez	a0,80000068 <loop1>
80000088:	34000000 	li	zero,0x0

8000008c <READSERIAL>:
8000008c:	822803fc 	lb	t0,1020(s1)
80000090:	31080002 	andi	t0,t0,0x2
80000094:	1100fffd 	beqz	t0,8000008c <READSERIAL>
80000098:	34000000 	li	zero,0x0
8000009c:	822403f8 	lb	a0,1016(s1)
800000a0:	34080054 	li	t0,0x54
800000a4:	1488fff9 	bne	a0,t0,8000008c <READSERIAL>
800000a8:	34000000 	li	zero,0x0

800000ac <RANDOMTEST>:
800000ac:	3c108040 	lui	s0,0x8040
800000b0:	36100100 	ori	s0,s0,0x100
800000b4:	24110000 	li	s1,0
800000b8:	8e120004 	lw	s2,4(s0)
800000bc:	8e130008 	lw	s3,8(s0)

800000c0 <add>:
800000c0:	32480001 	andi	t0,s2,0x1
800000c4:	11000021 	beqz	t0,8000014c <add_next>
800000c8:	34000000 	li	zero,0x0
800000cc:	3c08bccd 	lui	t0,0xbccd
800000d0:	350854c8 	ori	t0,t0,0x54c8
800000d4:	3c090a2c 	lui	t1,0xa2c
800000d8:	35293b14 	ori	t1,t1,0x3b14
800000dc:	3c03c6f9 	lui	v1,0xc6f9
800000e0:	34638fdc 	ori	v1,v1,0x8fdc
800000e4:	01091020 	add	v0,t0,t1
800000e8:	14430018 	bne	v0,v1,8000014c <add_next>
800000ec:	34000000 	li	zero,0x0
800000f0:	3c0895f0 	lui	t0,0x95f0
800000f4:	3508c7b0 	ori	t0,t0,0xc7b0
800000f8:	24090000 	li	t1,0
800000fc:	3c0395f0 	lui	v1,0x95f0
80000100:	3463c7b0 	ori	v1,v1,0xc7b0
80000104:	01091020 	add	v0,t0,t1
80000108:	14430010 	bne	v0,v1,8000014c <add_next>
8000010c:	34000000 	li	zero,0x0
80000110:	24080000 	li	t0,0
80000114:	3c096e70 	lui	t1,0x6e70
80000118:	35291f70 	ori	t1,t1,0x1f70
8000011c:	3c036e70 	lui	v1,0x6e70
80000120:	34631f70 	ori	v1,v1,0x1f70
80000124:	01091020 	add	v0,t0,t1
80000128:	14430008 	bne	v0,v1,8000014c <add_next>
8000012c:	34000000 	li	zero,0x0
80000130:	24080000 	li	t0,0
80000134:	24090000 	li	t1,0
80000138:	24030000 	li	v1,0
8000013c:	01091020 	add	v0,t0,t1
80000140:	14430002 	bne	v0,v1,8000014c <add_next>
80000144:	34000000 	li	zero,0x0
80000148:	36310001 	ori	s1,s1,0x1

8000014c <add_next>:
8000014c:	32480002 	andi	t0,s2,0x2
80000150:	1100001a 	beqz	t0,800001bc <addi_next>
80000154:	34000000 	li	zero,0x0
80000158:	3c08bcbf 	lui	t0,0xbcbf
8000015c:	3508dbe0 	ori	t0,t0,0xdbe0
80000160:	3c03bcbf 	lui	v1,0xbcbf
80000164:	3463d2a0 	ori	v1,v1,0xd2a0
80000168:	2102f6c0 	addi	v0,t0,-2368
8000016c:	14430013 	bne	v0,v1,800001bc <addi_next>
80000170:	34000000 	li	zero,0x0
80000174:	3c08d33b 	lui	t0,0xd33b
80000178:	350801eb 	ori	t0,t0,0x1eb
8000017c:	3c03d33b 	lui	v1,0xd33b
80000180:	346301eb 	ori	v1,v1,0x1eb
80000184:	21020000 	addi	v0,t0,0
80000188:	1443000c 	bne	v0,v1,800001bc <addi_next>
8000018c:	34000000 	li	zero,0x0
80000190:	24080000 	li	t0,0
80000194:	24033e0c 	li	v1,15884
80000198:	21023e0c 	addi	v0,t0,15884
8000019c:	14430007 	bne	v0,v1,800001bc <addi_next>
800001a0:	34000000 	li	zero,0x0
800001a4:	24080000 	li	t0,0
800001a8:	24030000 	li	v1,0
800001ac:	21020000 	addi	v0,t0,0
800001b0:	14430002 	bne	v0,v1,800001bc <addi_next>
800001b4:	34000000 	li	zero,0x0
800001b8:	36310002 	ori	s1,s1,0x2

800001bc <addi_next>:
800001bc:	32480004 	andi	t0,s2,0x4
800001c0:	11000021 	beqz	t0,80000248 <slt>
800001c4:	34000000 	li	zero,0x0
800001c8:	3c080863 	lui	t0,0x863
800001cc:	35085494 	ori	t0,t0,0x5494
800001d0:	3c099eb5 	lui	t1,0x9eb5
800001d4:	35291e6c 	ori	t1,t1,0x1e6c
800001d8:	3c0369ae 	lui	v1,0x69ae
800001dc:	34633628 	ori	v1,v1,0x3628
800001e0:	01091022 	sub	v0,t0,t1
800001e4:	14430018 	bne	v0,v1,80000248 <slt>
800001e8:	34000000 	li	zero,0x0
800001ec:	3c0893bd 	lui	t0,0x93bd
800001f0:	350845a8 	ori	t0,t0,0x45a8
800001f4:	24090000 	li	t1,0
800001f8:	3c0393bd 	lui	v1,0x93bd
800001fc:	346345a8 	ori	v1,v1,0x45a8
80000200:	01091022 	sub	v0,t0,t1
80000204:	14430010 	bne	v0,v1,80000248 <slt>
80000208:	34000000 	li	zero,0x0
8000020c:	24080000 	li	t0,0
80000210:	3c09d2e5 	lui	t1,0xd2e5
80000214:	35294c39 	ori	t1,t1,0x4c39
80000218:	3c032d1a 	lui	v1,0x2d1a
8000021c:	3463b3c7 	ori	v1,v1,0xb3c7
80000220:	01091022 	sub	v0,t0,t1
80000224:	14430008 	bne	v0,v1,80000248 <slt>
80000228:	34000000 	li	zero,0x0
8000022c:	24080000 	li	t0,0
80000230:	24090000 	li	t1,0
80000234:	24030000 	li	v1,0
80000238:	01091022 	sub	v0,t0,t1
8000023c:	14430002 	bne	v0,v1,80000248 <slt>
80000240:	34000000 	li	zero,0x0
80000244:	36310004 	ori	s1,s1,0x4

80000248 <slt>:
80000248:	32480008 	andi	t0,s2,0x8
8000024c:	1100001e 	beqz	t0,800002c8 <sllv>
80000250:	34000000 	li	zero,0x0
80000254:	3c0877ea 	lui	t0,0x77ea
80000258:	350882d8 	ori	t0,t0,0x82d8
8000025c:	3c09273d 	lui	t1,0x273d
80000260:	3529a080 	ori	t1,t1,0xa080
80000264:	24030000 	li	v1,0
80000268:	0109102a 	slt	v0,t0,t1
8000026c:	14430016 	bne	v0,v1,800002c8 <sllv>
80000270:	34000000 	li	zero,0x0
80000274:	3c085d1e 	lui	t0,0x5d1e
80000278:	3508b494 	ori	t0,t0,0xb494
8000027c:	24090000 	li	t1,0
80000280:	24030000 	li	v1,0
80000284:	0109102a 	slt	v0,t0,t1
80000288:	1443000f 	bne	v0,v1,800002c8 <sllv>
8000028c:	34000000 	li	zero,0x0
80000290:	24080000 	li	t0,0
80000294:	3c091eaa 	lui	t1,0x1eaa
80000298:	3529c5e3 	ori	t1,t1,0xc5e3
8000029c:	24030001 	li	v1,1
800002a0:	0109102a 	slt	v0,t0,t1
800002a4:	14430008 	bne	v0,v1,800002c8 <sllv>
800002a8:	34000000 	li	zero,0x0
800002ac:	24080000 	li	t0,0
800002b0:	24090000 	li	t1,0
800002b4:	24030000 	li	v1,0
800002b8:	0109102a 	slt	v0,t0,t1
800002bc:	14430002 	bne	v0,v1,800002c8 <sllv>
800002c0:	34000000 	li	zero,0x0
800002c4:	36310008 	ori	s1,s1,0x8

800002c8 <sllv>:
800002c8:	32480010 	andi	t0,s2,0x10
800002cc:	1100001d 	beqz	t0,80000344 <sllv_next>
800002d0:	34000000 	li	zero,0x0
800002d4:	3c081b96 	lui	t0,0x1b96
800002d8:	350890c3 	ori	t0,t0,0x90c3
800002dc:	2409001b 	li	t1,27
800002e0:	3c031800 	lui	v1,0x1800
800002e4:	01281004 	sllv	v0,t0,t1
800002e8:	14430016 	bne	v0,v1,80000344 <sllv_next>
800002ec:	34000000 	li	zero,0x0
800002f0:	3c08999f 	lui	t0,0x999f
800002f4:	3508f140 	ori	t0,t0,0xf140
800002f8:	24090000 	li	t1,0
800002fc:	3c03999f 	lui	v1,0x999f
80000300:	3463f140 	ori	v1,v1,0xf140
80000304:	01281004 	sllv	v0,t0,t1
80000308:	1443000e 	bne	v0,v1,80000344 <sllv_next>
8000030c:	34000000 	li	zero,0x0
80000310:	24080000 	li	t0,0
80000314:	24090001 	li	t1,1
80000318:	24030000 	li	v1,0
8000031c:	01281004 	sllv	v0,t0,t1
80000320:	14430008 	bne	v0,v1,80000344 <sllv_next>
80000324:	34000000 	li	zero,0x0
80000328:	24080000 	li	t0,0
8000032c:	24090000 	li	t1,0
80000330:	24030000 	li	v1,0
80000334:	01281004 	sllv	v0,t0,t1
80000338:	14430002 	bne	v0,v1,80000344 <sllv_next>
8000033c:	34000000 	li	zero,0x0
80000340:	36310010 	ori	s1,s1,0x10

80000344 <sllv_next>:
80000344:	32480020 	andi	t0,s2,0x20
80000348:	1100001e 	beqz	t0,800003c4 <sra>
8000034c:	34000000 	li	zero,0x0
80000350:	3c08dbba 	lui	t0,0xdbba
80000354:	3508d0b0 	ori	t0,t0,0xd0b0
80000358:	24090005 	li	t1,5
8000035c:	3c03fedd 	lui	v1,0xfedd
80000360:	3463d685 	ori	v1,v1,0xd685
80000364:	01281007 	srav	v0,t0,t1
80000368:	14430016 	bne	v0,v1,800003c4 <sra>
8000036c:	34000000 	li	zero,0x0
80000370:	3c080b24 	lui	t0,0xb24
80000374:	3508d560 	ori	t0,t0,0xd560
80000378:	24090000 	li	t1,0
8000037c:	3c030b24 	lui	v1,0xb24
80000380:	3463d560 	ori	v1,v1,0xd560
80000384:	01281007 	srav	v0,t0,t1
80000388:	1443000e 	bne	v0,v1,800003c4 <sra>
8000038c:	34000000 	li	zero,0x0
80000390:	24080000 	li	t0,0
80000394:	24090012 	li	t1,18
80000398:	24030000 	li	v1,0
8000039c:	01281007 	srav	v0,t0,t1
800003a0:	14430008 	bne	v0,v1,800003c4 <sra>
800003a4:	34000000 	li	zero,0x0
800003a8:	24080000 	li	t0,0
800003ac:	24090000 	li	t1,0
800003b0:	24030000 	li	v1,0
800003b4:	01281007 	srav	v0,t0,t1
800003b8:	14430002 	bne	v0,v1,800003c4 <sra>
800003bc:	34000000 	li	zero,0x0
800003c0:	36310020 	ori	s1,s1,0x20

800003c4 <sra>:
800003c4:	32480040 	andi	t0,s2,0x40
800003c8:	11000019 	beqz	t0,80000430 <sra_next>
800003cc:	34000000 	li	zero,0x0
800003d0:	3c08b3bf 	lui	t0,0xb3bf
800003d4:	35087ef8 	ori	t0,t0,0x7ef8
800003d8:	2403fffb 	li	v1,-5
800003dc:	00081703 	sra	v0,t0,0x1c
800003e0:	14430013 	bne	v0,v1,80000430 <sra_next>
800003e4:	34000000 	li	zero,0x0
800003e8:	3c087f79 	lui	t0,0x7f79
800003ec:	35087f19 	ori	t0,t0,0x7f19
800003f0:	3c037f79 	lui	v1,0x7f79
800003f4:	34637f19 	ori	v1,v1,0x7f19
800003f8:	00081003 	sra	v0,t0,0x0
800003fc:	1443000c 	bne	v0,v1,80000430 <sra_next>
80000400:	34000000 	li	zero,0x0
80000404:	24080000 	li	t0,0
80000408:	24030000 	li	v1,0
8000040c:	00081583 	sra	v0,t0,0x16
80000410:	14430007 	bne	v0,v1,80000430 <sra_next>
80000414:	34000000 	li	zero,0x0
80000418:	24080000 	li	t0,0
8000041c:	24030000 	li	v1,0
80000420:	00081003 	sra	v0,t0,0x0
80000424:	14430002 	bne	v0,v1,80000430 <sra_next>
80000428:	34000000 	li	zero,0x0
8000042c:	36310040 	ori	s1,s1,0x40

80000430 <sra_next>:
80000430:	32480080 	andi	t0,s2,0x80
80000434:	1100001e 	beqz	t0,800004b0 <jalr>
80000438:	34000000 	li	zero,0x0
8000043c:	3c08cfe5 	lui	t0,0xcfe5
80000440:	35084c57 	ori	t0,t0,0x4c57
80000444:	24090006 	li	t1,6
80000448:	3c03033f 	lui	v1,0x33f
8000044c:	34639531 	ori	v1,v1,0x9531
80000450:	01281006 	srlv	v0,t0,t1
80000454:	14430016 	bne	v0,v1,800004b0 <jalr>
80000458:	34000000 	li	zero,0x0
8000045c:	3c0816f9 	lui	t0,0x16f9
80000460:	3508a9d8 	ori	t0,t0,0xa9d8
80000464:	24090000 	li	t1,0
80000468:	3c0316f9 	lui	v1,0x16f9
8000046c:	3463a9d8 	ori	v1,v1,0xa9d8
80000470:	01281006 	srlv	v0,t0,t1
80000474:	1443000e 	bne	v0,v1,800004b0 <jalr>
80000478:	34000000 	li	zero,0x0
8000047c:	24080000 	li	t0,0
80000480:	2409000c 	li	t1,12
80000484:	24030000 	li	v1,0
80000488:	01281006 	srlv	v0,t0,t1
8000048c:	14430008 	bne	v0,v1,800004b0 <jalr>
80000490:	34000000 	li	zero,0x0
80000494:	24080000 	li	t0,0
80000498:	24090000 	li	t1,0
8000049c:	24030000 	li	v1,0
800004a0:	01281006 	srlv	v0,t0,t1
800004a4:	14430002 	bne	v0,v1,800004b0 <jalr>
800004a8:	34000000 	li	zero,0x0
800004ac:	36310080 	ori	s1,s1,0x80

800004b0 <jalr>:
800004b0:	32480100 	andi	t0,s2,0x100
800004b4:	110000a2 	beqz	t0,80000740 <bgez>
800004b8:	34000000 	li	zero,0x0
800004bc:	001fb821 	addu	s7,zero,ra
800004c0:	24020000 	li	v0,0
800004c4:	24030000 	li	v1,0
800004c8:	3c088000 	lui	t0,0x8000
800004cc:	250804e0 	addiu	t0,t0,1248
800004d0:	3c098000 	lui	t1,0x8000
800004d4:	2529050c 	addiu	t1,t1,1292
800004d8:	10000008 	b	800004fc <jalr+0x4c>
800004dc:	34000000 	li	zero,0x0
800004e0:	03e02021 	move	a0,ra
800004e4:	3c026e6b 	lui	v0,0x6e6b
800004e8:	3442362a 	ori	v0,v0,0x362a
800004ec:	0120f809 	jalr	t1
800004f0:	34000000 	li	zero,0x0
800004f4:	10000008 	b	80000518 <jalr+0x68>
800004f8:	34000000 	li	zero,0x0
800004fc:	0100f809 	jalr	t0
80000500:	34000000 	li	zero,0x0
80000504:	10000004 	b	80000518 <jalr+0x68>
80000508:	34000000 	li	zero,0x0
8000050c:	03e02821 	move	a1,ra
80000510:	3c03240b 	lui	v1,0x240b
80000514:	3463af26 	ori	v1,v1,0xaf26
80000518:	0017f821 	addu	ra,zero,s7
8000051c:	3c156e6b 	lui	s5,0x6e6b
80000520:	36b5362a 	ori	s5,s5,0x362a
80000524:	3c16240b 	lui	s6,0x240b
80000528:	36d6af26 	ori	s6,s6,0xaf26
8000052c:	14550084 	bne	v0,s5,80000740 <bgez>
80000530:	34000000 	li	zero,0x0
80000534:	14760082 	bne	v1,s6,80000740 <bgez>
80000538:	34000000 	li	zero,0x0
8000053c:	3c158000 	lui	s5,0x8000
80000540:	26b504f4 	addiu	s5,s5,1268
80000544:	3c168000 	lui	s6,0x8000
80000548:	26d60504 	addiu	s6,s6,1284
8000054c:	1496007c 	bne	a0,s6,80000740 <bgez>
80000550:	34000000 	li	zero,0x0
80000554:	14b5007a 	bne	a1,s5,80000740 <bgez>
80000558:	34000000 	li	zero,0x0
8000055c:	001fb821 	addu	s7,zero,ra
80000560:	24020000 	li	v0,0
80000564:	24030000 	li	v1,0
80000568:	3c088000 	lui	t0,0x8000
8000056c:	25080580 	addiu	t0,t0,1408
80000570:	3c098000 	lui	t1,0x8000
80000574:	252905ac 	addiu	t1,t1,1452
80000578:	10000008 	b	8000059c <jalr+0xec>
8000057c:	34000000 	li	zero,0x0
80000580:	03e02021 	move	a0,ra
80000584:	3c025d0f 	lui	v0,0x5d0f
80000588:	3442cbc0 	ori	v0,v0,0xcbc0
8000058c:	0120f809 	jalr	t1
80000590:	34000000 	li	zero,0x0
80000594:	10000008 	b	800005b8 <jalr+0x108>
80000598:	34000000 	li	zero,0x0
8000059c:	0100f809 	jalr	t0
800005a0:	34000000 	li	zero,0x0
800005a4:	10000004 	b	800005b8 <jalr+0x108>
800005a8:	34000000 	li	zero,0x0
800005ac:	03e02821 	move	a1,ra
800005b0:	3c03dba3 	lui	v1,0xdba3
800005b4:	3463ac64 	ori	v1,v1,0xac64
800005b8:	0017f821 	addu	ra,zero,s7
800005bc:	3c155d0f 	lui	s5,0x5d0f
800005c0:	36b5cbc0 	ori	s5,s5,0xcbc0
800005c4:	3c16dba3 	lui	s6,0xdba3
800005c8:	36d6ac64 	ori	s6,s6,0xac64
800005cc:	1455005c 	bne	v0,s5,80000740 <bgez>
800005d0:	34000000 	li	zero,0x0
800005d4:	1476005a 	bne	v1,s6,80000740 <bgez>
800005d8:	34000000 	li	zero,0x0
800005dc:	3c158000 	lui	s5,0x8000
800005e0:	26b50594 	addiu	s5,s5,1428
800005e4:	3c168000 	lui	s6,0x8000
800005e8:	26d605a4 	addiu	s6,s6,1444
800005ec:	14960054 	bne	a0,s6,80000740 <bgez>
800005f0:	34000000 	li	zero,0x0
800005f4:	14b50052 	bne	a1,s5,80000740 <bgez>
800005f8:	34000000 	li	zero,0x0
800005fc:	001fb821 	addu	s7,zero,ra
80000600:	24020000 	li	v0,0
80000604:	24030000 	li	v1,0
80000608:	3c088000 	lui	t0,0x8000
8000060c:	25080620 	addiu	t0,t0,1568
80000610:	3c098000 	lui	t1,0x8000
80000614:	2529064c 	addiu	t1,t1,1612
80000618:	10000008 	b	8000063c <jalr+0x18c>
8000061c:	34000000 	li	zero,0x0
80000620:	03e02021 	move	a0,ra
80000624:	3c02a832 	lui	v0,0xa832
80000628:	3442bb00 	ori	v0,v0,0xbb00
8000062c:	0120f809 	jalr	t1
80000630:	34000000 	li	zero,0x0
80000634:	10000008 	b	80000658 <jalr+0x1a8>
80000638:	34000000 	li	zero,0x0
8000063c:	0100f809 	jalr	t0
80000640:	34000000 	li	zero,0x0
80000644:	10000004 	b	80000658 <jalr+0x1a8>
80000648:	34000000 	li	zero,0x0
8000064c:	03e02821 	move	a1,ra
80000650:	3c03f43f 	lui	v1,0xf43f
80000654:	3463a620 	ori	v1,v1,0xa620
80000658:	0017f821 	addu	ra,zero,s7
8000065c:	3c15a832 	lui	s5,0xa832
80000660:	36b5bb00 	ori	s5,s5,0xbb00
80000664:	3c16f43f 	lui	s6,0xf43f
80000668:	36d6a620 	ori	s6,s6,0xa620
8000066c:	14550034 	bne	v0,s5,80000740 <bgez>
80000670:	34000000 	li	zero,0x0
80000674:	14760032 	bne	v1,s6,80000740 <bgez>
80000678:	34000000 	li	zero,0x0
8000067c:	3c158000 	lui	s5,0x8000
80000680:	26b50634 	addiu	s5,s5,1588
80000684:	3c168000 	lui	s6,0x8000
80000688:	26d60644 	addiu	s6,s6,1604
8000068c:	1496002c 	bne	a0,s6,80000740 <bgez>
80000690:	34000000 	li	zero,0x0
80000694:	14b5002a 	bne	a1,s5,80000740 <bgez>
80000698:	34000000 	li	zero,0x0
8000069c:	001fb821 	addu	s7,zero,ra
800006a0:	24020000 	li	v0,0
800006a4:	24030000 	li	v1,0
800006a8:	3c088000 	lui	t0,0x8000
800006ac:	250806c0 	addiu	t0,t0,1728
800006b0:	3c098000 	lui	t1,0x8000
800006b4:	252906ec 	addiu	t1,t1,1772
800006b8:	10000008 	b	800006dc <jalr+0x22c>
800006bc:	34000000 	li	zero,0x0
800006c0:	03e02021 	move	a0,ra
800006c4:	3c021e2a 	lui	v0,0x1e2a
800006c8:	3442a5ca 	ori	v0,v0,0xa5ca
800006cc:	0120f809 	jalr	t1
800006d0:	34000000 	li	zero,0x0
800006d4:	10000008 	b	800006f8 <jalr+0x248>
800006d8:	34000000 	li	zero,0x0
800006dc:	0100f809 	jalr	t0
800006e0:	34000000 	li	zero,0x0
800006e4:	10000004 	b	800006f8 <jalr+0x248>
800006e8:	34000000 	li	zero,0x0
800006ec:	03e02821 	move	a1,ra
800006f0:	3c034782 	lui	v1,0x4782
800006f4:	3463fd22 	ori	v1,v1,0xfd22
800006f8:	0017f821 	addu	ra,zero,s7
800006fc:	3c151e2a 	lui	s5,0x1e2a
80000700:	36b5a5ca 	ori	s5,s5,0xa5ca
80000704:	3c164782 	lui	s6,0x4782
80000708:	36d6fd22 	ori	s6,s6,0xfd22
8000070c:	1455000c 	bne	v0,s5,80000740 <bgez>
80000710:	34000000 	li	zero,0x0
80000714:	1476000a 	bne	v1,s6,80000740 <bgez>
80000718:	34000000 	li	zero,0x0
8000071c:	3c158000 	lui	s5,0x8000
80000720:	26b506d4 	addiu	s5,s5,1748
80000724:	3c168000 	lui	s6,0x8000
80000728:	26d606e4 	addiu	s6,s6,1764
8000072c:	14960004 	bne	a0,s6,80000740 <bgez>
80000730:	34000000 	li	zero,0x0
80000734:	14b50002 	bne	a1,s5,80000740 <bgez>
80000738:	34000000 	li	zero,0x0
8000073c:	36310100 	ori	s1,s1,0x100

80000740 <bgez>:
80000740:	32480200 	andi	t0,s2,0x200
80000744:	1100006f 	beqz	t0,80000904 <bgez_next>
80000748:	34000000 	li	zero,0x0
8000074c:	24020000 	li	v0,0
80000750:	24030000 	li	v1,0
80000754:	10000008 	b	80000778 <bgez+0x38>
80000758:	34000000 	li	zero,0x0
8000075c:	3c021b15 	lui	v0,0x1b15
80000760:	34421f5e 	ori	v0,v0,0x1f5e
80000764:	0501000b 	bgez	t0,80000794 <bgez+0x54>
80000768:	34000000 	li	zero,0x0
8000076c:	1000000b 	b	8000079c <bgez+0x5c>
80000770:	34000000 	li	zero,0x0
80000774:	34000000 	li	zero,0x0
80000778:	3c08bb00 	lui	t0,0xbb00
8000077c:	3508130a 	ori	t0,t0,0x130a
80000780:	0501fff6 	bgez	t0,8000075c <bgez+0x1c>
80000784:	34000000 	li	zero,0x0
80000788:	10000004 	b	8000079c <bgez+0x5c>
8000078c:	34000000 	li	zero,0x0
80000790:	34000000 	li	zero,0x0
80000794:	3c030e69 	lui	v1,0xe69
80000798:	346329ba 	ori	v1,v1,0x29ba
8000079c:	24150000 	li	s5,0
800007a0:	24160000 	li	s6,0
800007a4:	14550057 	bne	v0,s5,80000904 <bgez_next>
800007a8:	34000000 	li	zero,0x0
800007ac:	14760055 	bne	v1,s6,80000904 <bgez_next>
800007b0:	34000000 	li	zero,0x0
800007b4:	24020000 	li	v0,0
800007b8:	24030000 	li	v1,0
800007bc:	10000008 	b	800007e0 <bgez+0xa0>
800007c0:	34000000 	li	zero,0x0
800007c4:	3c024020 	lui	v0,0x4020
800007c8:	3442bf52 	ori	v0,v0,0xbf52
800007cc:	0501000b 	bgez	t0,800007fc <bgez+0xbc>
800007d0:	34000000 	li	zero,0x0
800007d4:	1000000b 	b	80000804 <bgez+0xc4>
800007d8:	34000000 	li	zero,0x0
800007dc:	34000000 	li	zero,0x0
800007e0:	3c0844f2 	lui	t0,0x44f2
800007e4:	3508bff4 	ori	t0,t0,0xbff4
800007e8:	0501fff6 	bgez	t0,800007c4 <bgez+0x84>
800007ec:	34000000 	li	zero,0x0
800007f0:	10000004 	b	80000804 <bgez+0xc4>
800007f4:	34000000 	li	zero,0x0
800007f8:	34000000 	li	zero,0x0
800007fc:	3c034efb 	lui	v1,0x4efb
80000800:	346306d3 	ori	v1,v1,0x6d3
80000804:	3c154020 	lui	s5,0x4020
80000808:	36b5bf52 	ori	s5,s5,0xbf52
8000080c:	3c164efb 	lui	s6,0x4efb
80000810:	36d606d3 	ori	s6,s6,0x6d3
80000814:	1455003b 	bne	v0,s5,80000904 <bgez_next>
80000818:	34000000 	li	zero,0x0
8000081c:	14760039 	bne	v1,s6,80000904 <bgez_next>
80000820:	34000000 	li	zero,0x0
80000824:	24020000 	li	v0,0
80000828:	24030000 	li	v1,0
8000082c:	10000008 	b	80000850 <bgez+0x110>
80000830:	34000000 	li	zero,0x0
80000834:	3c02ab21 	lui	v0,0xab21
80000838:	34425888 	ori	v0,v0,0x5888
8000083c:	0501000b 	bgez	t0,8000086c <bgez+0x12c>
80000840:	34000000 	li	zero,0x0
80000844:	1000000b 	b	80000874 <bgez+0x134>
80000848:	34000000 	li	zero,0x0
8000084c:	34000000 	li	zero,0x0
80000850:	3c0812bd 	lui	t0,0x12bd
80000854:	35088028 	ori	t0,t0,0x8028
80000858:	0501fff6 	bgez	t0,80000834 <bgez+0xf4>
8000085c:	34000000 	li	zero,0x0
80000860:	10000004 	b	80000874 <bgez+0x134>
80000864:	34000000 	li	zero,0x0
80000868:	34000000 	li	zero,0x0
8000086c:	3c0355ac 	lui	v1,0x55ac
80000870:	3463a678 	ori	v1,v1,0xa678
80000874:	3c15ab21 	lui	s5,0xab21
80000878:	36b55888 	ori	s5,s5,0x5888
8000087c:	3c1655ac 	lui	s6,0x55ac
80000880:	36d6a678 	ori	s6,s6,0xa678
80000884:	1455001f 	bne	v0,s5,80000904 <bgez_next>
80000888:	34000000 	li	zero,0x0
8000088c:	1476001d 	bne	v1,s6,80000904 <bgez_next>
80000890:	34000000 	li	zero,0x0
80000894:	24020000 	li	v0,0
80000898:	24030000 	li	v1,0
8000089c:	10000008 	b	800008c0 <bgez+0x180>
800008a0:	34000000 	li	zero,0x0
800008a4:	3c021f13 	lui	v0,0x1f13
800008a8:	34429900 	ori	v0,v0,0x9900
800008ac:	0501000a 	bgez	t0,800008d8 <bgez+0x198>
800008b0:	34000000 	li	zero,0x0
800008b4:	1000000a 	b	800008e0 <bgez+0x1a0>
800008b8:	34000000 	li	zero,0x0
800008bc:	34000000 	li	zero,0x0
800008c0:	24080000 	li	t0,0
800008c4:	0501fff7 	bgez	t0,800008a4 <bgez+0x164>
800008c8:	34000000 	li	zero,0x0
800008cc:	10000004 	b	800008e0 <bgez+0x1a0>
800008d0:	34000000 	li	zero,0x0
800008d4:	34000000 	li	zero,0x0
800008d8:	3c03af65 	lui	v1,0xaf65
800008dc:	346331c4 	ori	v1,v1,0x31c4
800008e0:	3c151f13 	lui	s5,0x1f13
800008e4:	36b59900 	ori	s5,s5,0x9900
800008e8:	3c16af65 	lui	s6,0xaf65
800008ec:	36d631c4 	ori	s6,s6,0x31c4
800008f0:	14550004 	bne	v0,s5,80000904 <bgez_next>
800008f4:	34000000 	li	zero,0x0
800008f8:	14760002 	bne	v1,s6,80000904 <bgez_next>
800008fc:	34000000 	li	zero,0x0
80000900:	36310200 	ori	s1,s1,0x200

80000904 <bgez_next>:
80000904:	32480400 	andi	t0,s2,0x400
80000908:	1100006f 	beqz	t0,80000ac8 <blez_next>
8000090c:	34000000 	li	zero,0x0
80000910:	24020000 	li	v0,0
80000914:	24030000 	li	v1,0
80000918:	10000008 	b	8000093c <bgez_next+0x38>
8000091c:	34000000 	li	zero,0x0
80000920:	3c026ad0 	lui	v0,0x6ad0
80000924:	3442a0b8 	ori	v0,v0,0xa0b8
80000928:	1900000b 	blez	t0,80000958 <bgez_next+0x54>
8000092c:	34000000 	li	zero,0x0
80000930:	1000000b 	b	80000960 <bgez_next+0x5c>
80000934:	34000000 	li	zero,0x0
80000938:	34000000 	li	zero,0x0
8000093c:	3c0895b9 	lui	t0,0x95b9
80000940:	3508206f 	ori	t0,t0,0x206f
80000944:	1900fff6 	blez	t0,80000920 <bgez_next+0x1c>
80000948:	34000000 	li	zero,0x0
8000094c:	10000004 	b	80000960 <bgez_next+0x5c>
80000950:	34000000 	li	zero,0x0
80000954:	34000000 	li	zero,0x0
80000958:	3c038f08 	lui	v1,0x8f08
8000095c:	3463db03 	ori	v1,v1,0xdb03
80000960:	3c156ad0 	lui	s5,0x6ad0
80000964:	36b5a0b8 	ori	s5,s5,0xa0b8
80000968:	3c168f08 	lui	s6,0x8f08
8000096c:	36d6db03 	ori	s6,s6,0xdb03
80000970:	14550055 	bne	v0,s5,80000ac8 <blez_next>
80000974:	34000000 	li	zero,0x0
80000978:	14760053 	bne	v1,s6,80000ac8 <blez_next>
8000097c:	34000000 	li	zero,0x0
80000980:	24020000 	li	v0,0
80000984:	24030000 	li	v1,0
80000988:	10000008 	b	800009ac <bgez_next+0xa8>
8000098c:	34000000 	li	zero,0x0
80000990:	3c02c782 	lui	v0,0xc782
80000994:	34426200 	ori	v0,v0,0x6200
80000998:	1900000b 	blez	t0,800009c8 <bgez_next+0xc4>
8000099c:	34000000 	li	zero,0x0
800009a0:	1000000b 	b	800009d0 <bgez_next+0xcc>
800009a4:	34000000 	li	zero,0x0
800009a8:	34000000 	li	zero,0x0
800009ac:	3c082c09 	lui	t0,0x2c09
800009b0:	3508b044 	ori	t0,t0,0xb044
800009b4:	1900fff6 	blez	t0,80000990 <bgez_next+0x8c>
800009b8:	34000000 	li	zero,0x0
800009bc:	10000004 	b	800009d0 <bgez_next+0xcc>
800009c0:	34000000 	li	zero,0x0
800009c4:	34000000 	li	zero,0x0
800009c8:	3c0313ea 	lui	v1,0x13ea
800009cc:	34632762 	ori	v1,v1,0x2762
800009d0:	24150000 	li	s5,0
800009d4:	24160000 	li	s6,0
800009d8:	1455003b 	bne	v0,s5,80000ac8 <blez_next>
800009dc:	34000000 	li	zero,0x0
800009e0:	14760039 	bne	v1,s6,80000ac8 <blez_next>
800009e4:	34000000 	li	zero,0x0
800009e8:	24020000 	li	v0,0
800009ec:	24030000 	li	v1,0
800009f0:	10000008 	b	80000a14 <bgez_next+0x110>
800009f4:	34000000 	li	zero,0x0
800009f8:	3c02ea86 	lui	v0,0xea86
800009fc:	34427f00 	ori	v0,v0,0x7f00
80000a00:	1900000b 	blez	t0,80000a30 <bgez_next+0x12c>
80000a04:	34000000 	li	zero,0x0
80000a08:	1000000b 	b	80000a38 <bgez_next+0x134>
80000a0c:	34000000 	li	zero,0x0
80000a10:	34000000 	li	zero,0x0
80000a14:	3c08dab5 	lui	t0,0xdab5
80000a18:	350862ac 	ori	t0,t0,0x62ac
80000a1c:	1900fff6 	blez	t0,800009f8 <bgez_next+0xf4>
80000a20:	34000000 	li	zero,0x0
80000a24:	10000004 	b	80000a38 <bgez_next+0x134>
80000a28:	34000000 	li	zero,0x0
80000a2c:	34000000 	li	zero,0x0
80000a30:	3c036d76 	lui	v1,0x6d76
80000a34:	346350e5 	ori	v1,v1,0x50e5
80000a38:	3c15ea86 	lui	s5,0xea86
80000a3c:	36b57f00 	ori	s5,s5,0x7f00
80000a40:	3c166d76 	lui	s6,0x6d76
80000a44:	36d650e5 	ori	s6,s6,0x50e5
80000a48:	1455001f 	bne	v0,s5,80000ac8 <blez_next>
80000a4c:	34000000 	li	zero,0x0
80000a50:	1476001d 	bne	v1,s6,80000ac8 <blez_next>
80000a54:	34000000 	li	zero,0x0
80000a58:	24020000 	li	v0,0
80000a5c:	24030000 	li	v1,0
80000a60:	10000008 	b	80000a84 <bgez_next+0x180>
80000a64:	34000000 	li	zero,0x0
80000a68:	3c02bb97 	lui	v0,0xbb97
80000a6c:	344234a0 	ori	v0,v0,0x34a0
80000a70:	1900000a 	blez	t0,80000a9c <bgez_next+0x198>
80000a74:	34000000 	li	zero,0x0
80000a78:	1000000a 	b	80000aa4 <bgez_next+0x1a0>
80000a7c:	34000000 	li	zero,0x0
80000a80:	34000000 	li	zero,0x0
80000a84:	24080000 	li	t0,0
80000a88:	1900fff7 	blez	t0,80000a68 <bgez_next+0x164>
80000a8c:	34000000 	li	zero,0x0
80000a90:	10000004 	b	80000aa4 <bgez_next+0x1a0>
80000a94:	34000000 	li	zero,0x0
80000a98:	34000000 	li	zero,0x0
80000a9c:	3c03ff0a 	lui	v1,0xff0a
80000aa0:	3463f084 	ori	v1,v1,0xf084
80000aa4:	3c15bb97 	lui	s5,0xbb97
80000aa8:	36b534a0 	ori	s5,s5,0x34a0
80000aac:	3c16ff0a 	lui	s6,0xff0a
80000ab0:	36d6f084 	ori	s6,s6,0xf084
80000ab4:	14550004 	bne	v0,s5,80000ac8 <blez_next>
80000ab8:	34000000 	li	zero,0x0
80000abc:	14760002 	bne	v1,s6,80000ac8 <blez_next>
80000ac0:	34000000 	li	zero,0x0
80000ac4:	36310400 	ori	s1,s1,0x400

80000ac8 <blez_next>:
80000ac8:	32480800 	andi	t0,s2,0x800
80000acc:	11000065 	beqz	t0,80000c64 <bltz_next>
80000ad0:	34000000 	li	zero,0x0
80000ad4:	24020000 	li	v0,0
80000ad8:	24030000 	li	v1,0
80000adc:	10000007 	b	80000afc <blez_next+0x34>
80000ae0:	34000000 	li	zero,0x0
80000ae4:	3c026a2f 	lui	v0,0x6a2f
80000ae8:	34427d7c 	ori	v0,v0,0x7d7c
80000aec:	05000009 	bltz	t0,80000b14 <blez_next+0x4c>
80000af0:	34000000 	li	zero,0x0
80000af4:	10000009 	b	80000b1c <blez_next+0x54>
80000af8:	34000000 	li	zero,0x0
80000afc:	3c08fff9 	lui	t0,0xfff9
80000b00:	35080290 	ori	t0,t0,0x290
80000b04:	0500fff7 	bltz	t0,80000ae4 <blez_next+0x1c>
80000b08:	34000000 	li	zero,0x0
80000b0c:	10000003 	b	80000b1c <blez_next+0x54>
80000b10:	34000000 	li	zero,0x0
80000b14:	3c03c275 	lui	v1,0xc275
80000b18:	3463fd82 	ori	v1,v1,0xfd82
80000b1c:	3c156a2f 	lui	s5,0x6a2f
80000b20:	36b57d7c 	ori	s5,s5,0x7d7c
80000b24:	3c16c275 	lui	s6,0xc275
80000b28:	36d6fd82 	ori	s6,s6,0xfd82
80000b2c:	1455004d 	bne	v0,s5,80000c64 <bltz_next>
80000b30:	34000000 	li	zero,0x0
80000b34:	1476004b 	bne	v1,s6,80000c64 <bltz_next>
80000b38:	34000000 	li	zero,0x0
80000b3c:	24020000 	li	v0,0
80000b40:	24030000 	li	v1,0
80000b44:	10000007 	b	80000b64 <blez_next+0x9c>
80000b48:	34000000 	li	zero,0x0
80000b4c:	3c02291a 	lui	v0,0x291a
80000b50:	34423374 	ori	v0,v0,0x3374
80000b54:	05000009 	bltz	t0,80000b7c <blez_next+0xb4>
80000b58:	34000000 	li	zero,0x0
80000b5c:	10000009 	b	80000b84 <blez_next+0xbc>
80000b60:	34000000 	li	zero,0x0
80000b64:	3c0835ae 	lui	t0,0x35ae
80000b68:	35088150 	ori	t0,t0,0x8150
80000b6c:	0500fff7 	bltz	t0,80000b4c <blez_next+0x84>
80000b70:	34000000 	li	zero,0x0
80000b74:	10000003 	b	80000b84 <blez_next+0xbc>
80000b78:	34000000 	li	zero,0x0
80000b7c:	3c0360d2 	lui	v1,0x60d2
80000b80:	34638110 	ori	v1,v1,0x8110
80000b84:	24150000 	li	s5,0
80000b88:	24160000 	li	s6,0
80000b8c:	14550035 	bne	v0,s5,80000c64 <bltz_next>
80000b90:	34000000 	li	zero,0x0
80000b94:	14760033 	bne	v1,s6,80000c64 <bltz_next>
80000b98:	34000000 	li	zero,0x0
80000b9c:	24020000 	li	v0,0
80000ba0:	24030000 	li	v1,0
80000ba4:	10000007 	b	80000bc4 <blez_next+0xfc>
80000ba8:	34000000 	li	zero,0x0
80000bac:	3c025f7d 	lui	v0,0x5f7d
80000bb0:	34426c5f 	ori	v0,v0,0x6c5f
80000bb4:	05000008 	bltz	t0,80000bd8 <blez_next+0x110>
80000bb8:	34000000 	li	zero,0x0
80000bbc:	10000008 	b	80000be0 <blez_next+0x118>
80000bc0:	34000000 	li	zero,0x0
80000bc4:	24080000 	li	t0,0
80000bc8:	0500fff8 	bltz	t0,80000bac <blez_next+0xe4>
80000bcc:	34000000 	li	zero,0x0
80000bd0:	10000003 	b	80000be0 <blez_next+0x118>
80000bd4:	34000000 	li	zero,0x0
80000bd8:	3c03632c 	lui	v1,0x632c
80000bdc:	346331aa 	ori	v1,v1,0x31aa
80000be0:	24150000 	li	s5,0
80000be4:	24160000 	li	s6,0
80000be8:	1455001e 	bne	v0,s5,80000c64 <bltz_next>
80000bec:	34000000 	li	zero,0x0
80000bf0:	1476001c 	bne	v1,s6,80000c64 <bltz_next>
80000bf4:	34000000 	li	zero,0x0
80000bf8:	24020000 	li	v0,0
80000bfc:	24030000 	li	v1,0
80000c00:	10000007 	b	80000c20 <blez_next+0x158>
80000c04:	34000000 	li	zero,0x0
80000c08:	3c021838 	lui	v0,0x1838
80000c0c:	34429fc2 	ori	v0,v0,0x9fc2
80000c10:	05000009 	bltz	t0,80000c38 <blez_next+0x170>
80000c14:	34000000 	li	zero,0x0
80000c18:	10000009 	b	80000c40 <blez_next+0x178>
80000c1c:	34000000 	li	zero,0x0
80000c20:	3c08f596 	lui	t0,0xf596
80000c24:	35089546 	ori	t0,t0,0x9546
80000c28:	0500fff7 	bltz	t0,80000c08 <blez_next+0x140>
80000c2c:	34000000 	li	zero,0x0
80000c30:	10000003 	b	80000c40 <blez_next+0x178>
80000c34:	34000000 	li	zero,0x0
80000c38:	3c03eb95 	lui	v1,0xeb95
80000c3c:	346342c8 	ori	v1,v1,0x42c8
80000c40:	3c151838 	lui	s5,0x1838
80000c44:	36b59fc2 	ori	s5,s5,0x9fc2
80000c48:	3c16eb95 	lui	s6,0xeb95
80000c4c:	36d642c8 	ori	s6,s6,0x42c8
80000c50:	14550004 	bne	v0,s5,80000c64 <bltz_next>
80000c54:	34000000 	li	zero,0x0
80000c58:	14760002 	bne	v1,s6,80000c64 <bltz_next>
80000c5c:	34000000 	li	zero,0x0
80000c60:	36310800 	ori	s1,s1,0x800

80000c64 <bltz_next>:
80000c64:	3c08feed 	lui	t0,0xfeed
80000c68:	01114025 	or	t0,t0,s1
80000c6c:	01134026 	xor	t0,t0,s3
80000c70:	ae080000 	sw	t0,0(s0)
80000c74:	1632000e 	bne	s1,s2,80000cb0 <end>
80000c78:	34000000 	li	zero,0x0

80000c7c <FEEDBACK>:
80000c7c:	3c108000 	lui	s0,0x8000
80000c80:	26100014 	addiu	s0,s0,20
80000c84:	82040000 	lb	a0,0(s0)
80000c88:	3c11bfd0 	lui	s1,0xbfd0

80000c8c <loop2>:
80000c8c:	26100001 	addiu	s0,s0,1

80000c90 <.TEST>:
80000c90:	822803fc 	lb	t0,1020(s1)
80000c94:	31080001 	andi	t0,t0,0x1
80000c98:	1100fffd 	beqz	t0,80000c90 <.TEST>
80000c9c:	34000000 	li	zero,0x0
80000ca0:	a22403f8 	sb	a0,1016(s1)
80000ca4:	82040000 	lb	a0,0(s0)
80000ca8:	1480fff8 	bnez	a0,80000c8c <loop2>
80000cac:	34000000 	li	zero,0x0

80000cb0 <end>:
80000cb0:	1000ffff 	b	80000cb0 <end>
80000cb4:	34000000 	li	zero,0x0
