
test.elf:     file format elf32-tradlittlemips


Disassembly of section .text:

80000000 <_ftext>:
80000000:	3c1d807e 	lui	sp,0x807e
80000004:	27bdffe8 	addiu	sp,sp,-24
80000008:	afbf0024 	sw	ra,36(sp)
8000000c:	00002025 	move	a0,zero
80000010:	0c00000e 	jal	80000038 <QUICKSORT>
80000014:	24050008 	li	a1,8
80000018:	8fbf0024 	lw	ra,36(sp)
8000001c:	27bd0018 	addiu	sp,sp,24

80000020 <READ>:
80000020:	3c088040 	lui	t0,0x8040

80000024 <loop>:
80000024:	8d090000 	lw	t1,0(t0)
80000028:	1520fffe 	bnez	t1,80000024 <loop>
8000002c:	25080004 	addiu	t0,t0,4
80000030:	08000068 	j	800001a0 <WRITESERIAL>
80000034:	00000000 	nop

80000038 <QUICKSORT>:
80000038:	27bdffd8 	addiu	sp,sp,-40
8000003c:	afbf0024 	sw	ra,36(sp)
80000040:	afbe0020 	sw	s8,32(sp)
80000044:	03a0f025 	move	s8,sp
80000048:	afc40028 	sw	a0,40(s8)
8000004c:	afc5002c 	sw	a1,44(s8)
80000050:	00801825 	move	v1,a0
80000054:	00a01025 	move	v0,a1
80000058:	0062102a 	slt	v0,v1,v0
8000005c:	14400003 	bnez	v0,8000006c <QUICKSORT+0x34>
80000060:	00000000 	nop
80000064:	10000048 	b	80000188 <SWAP+0x64>
80000068:	00000000 	nop
8000006c:	8fc30028 	lw	v1,40(s8)
80000070:	8fc2002c 	lw	v0,44(s8)
80000074:	00621021 	addu	v0,v1,v0
80000078:	00021843 	sra	v1,v0,0x1
8000007c:	3c028040 	lui	v0,0x8040
80000080:	00031880 	sll	v1,v1,0x2
80000084:	00621021 	addu	v0,v1,v0
80000088:	8c420000 	lw	v0,0(v0)
8000008c:	afc20018 	sw	v0,24(s8)
80000090:	8fc20028 	lw	v0,40(s8)
80000094:	2442ffff 	addiu	v0,v0,-1
80000098:	afc20010 	sw	v0,16(s8)
8000009c:	8fc2002c 	lw	v0,44(s8)
800000a0:	24420001 	addiu	v0,v0,1
800000a4:	afc20014 	sw	v0,20(s8)
800000a8:	1000002a 	b	80000154 <SWAP+0x30>
800000ac:	00000000 	nop
800000b0:	8fc20010 	lw	v0,16(s8)
800000b4:	24420001 	addiu	v0,v0,1
800000b8:	afc20010 	sw	v0,16(s8)
800000bc:	3c028040 	lui	v0,0x8040
800000c0:	8fc30010 	lw	v1,16(s8)
800000c4:	00031880 	sll	v1,v1,0x2
800000c8:	00621021 	addu	v0,v1,v0
800000cc:	8c430000 	lw	v1,0(v0)
800000d0:	8fc20018 	lw	v0,24(s8)
800000d4:	0062102a 	slt	v0,v1,v0
800000d8:	1440fff5 	bnez	v0,800000b0 <QUICKSORT+0x78>
800000dc:	00000000 	nop
800000e0:	8fc20014 	lw	v0,20(s8)
800000e4:	2442ffff 	addiu	v0,v0,-1
800000e8:	afc20014 	sw	v0,20(s8)
800000ec:	3c028040 	lui	v0,0x8040
800000f0:	8fc30014 	lw	v1,20(s8)
800000f4:	00031880 	sll	v1,v1,0x2
800000f8:	00621021 	addu	v0,v1,v0
800000fc:	8c430000 	lw	v1,0(v0)
80000100:	8fc20018 	lw	v0,24(s8)
80000104:	0043102a 	slt	v0,v0,v1
80000108:	1440fff5 	bnez	v0,800000e0 <QUICKSORT+0xa8>
8000010c:	00000000 	nop
80000110:	8fc30010 	lw	v1,16(s8)
80000114:	8fc20014 	lw	v0,20(s8)
80000118:	0062102a 	slt	v0,v1,v0
8000011c:	1040000d 	beqz	v0,80000154 <SWAP+0x30>
80000120:	00000000 	nop

80000124 <SWAP>:
80000124:	3c088040 	lui	t0,0x8040
80000128:	8fc30010 	lw	v1,16(s8)
8000012c:	00031880 	sll	v1,v1,0x2
80000130:	00684021 	addu	t0,v1,t0
80000134:	8d090000 	lw	t1,0(t0)
80000138:	3c0a8040 	lui	t2,0x8040
8000013c:	8fc30014 	lw	v1,20(s8)
80000140:	00031880 	sll	v1,v1,0x2
80000144:	006a5021 	addu	t2,v1,t2
80000148:	8d4b0000 	lw	t3,0(t2)
8000014c:	ad490000 	sw	t1,0(t2)
80000150:	ad0b0000 	sw	t3,0(t0)
80000154:	8fc30010 	lw	v1,16(s8)
80000158:	8fc20014 	lw	v0,20(s8)
8000015c:	0062102a 	slt	v0,v1,v0
80000160:	1440ffd3 	bnez	v0,800000b0 <QUICKSORT+0x78>
80000164:	00000000 	nop
80000168:	8fc40028 	lw	a0,40(s8)
8000016c:	0c00000e 	jal	80000038 <QUICKSORT>
80000170:	8fc50014 	lw	a1,20(s8)
80000174:	8fc20014 	lw	v0,20(s8)
80000178:	24420001 	addiu	v0,v0,1
8000017c:	00402025 	move	a0,v0
80000180:	0c00000e 	jal	80000038 <QUICKSORT>
80000184:	8fc5002c 	lw	a1,44(s8)
80000188:	03c0e825 	move	sp,s8
8000018c:	8fbf0024 	lw	ra,36(sp)
80000190:	8fbe0020 	lw	s8,32(sp)
80000194:	27bd0028 	addiu	sp,sp,40
80000198:	03e00008 	jr	ra
8000019c:	00000000 	nop

800001a0 <WRITESERIAL>:
800001a0:	3c11bfd0 	lui	s1,0xbfd0
800001a4:	3c108000 	lui	s0,0x8000
800001a8:	261001e0 	addiu	s0,s0,480
800001ac:	82040000 	lb	a0,0(s0)
800001b0:	26100001 	addiu	s0,s0,1

800001b4 <.TESTW>:
800001b4:	822803fc 	lb	t0,1020(s1)
800001b8:	31080001 	andi	t0,t0,0x1
800001bc:	1100fffd 	beqz	t0,800001b4 <.TESTW>
800001c0:	00000000 	nop
800001c4:	a22403f8 	sb	a0,1016(s1)
800001c8:	82040000 	lb	a0,0(s0)
800001cc:	26100001 	addiu	s0,s0,1
800001d0:	1480fff8 	bnez	a0,800001b4 <.TESTW>
800001d4:	00000000 	nop

800001d8 <end>:
800001d8:	03e00008 	jr	ra
800001dc:	00000000 	nop

800001e0 <feed>:
800001e0:	696e6966 	0x696e6966
800001e4:	64656873 	0x64656873
800001e8:	00000021 	move	zero,zero
