
test.elf:     file format elf32-tradlittlemips


Disassembly of section .text:

80000000 <bsearchr>:
80000000:	27bdfff0 	addiu	sp,sp,-16
80000004:	afbe000c 	sw	s8,12(sp)
80000008:	03a0f025 	move	s8,sp
8000000c:	afc40010 	sw	a0,16(s8)
80000010:	afc50014 	sw	a1,20(s8)
80000014:	afc60018 	sw	a2,24(s8)
80000018:	10000018 	b	8000007c <bsearchr+0x7c>
8000001c:	00000000 	nop
80000020:	8fc30010 	lw	v1,16(s8)
80000024:	8fc20014 	lw	v0,20(s8)
80000028:	00621021 	addu	v0,v1,v0
8000002c:	24420001 	addiu	v0,v0,1
80000030:	00021043 	sra	v0,v0,0x1
80000034:	afc20000 	sw	v0,0(s8)
80000038:	3c028001 	lui	v0,0x8001
8000003c:	8fc30000 	lw	v1,0(s8)
80000040:	00031880 	sll	v1,v1,0x2
80000044:	244201b0 	addiu	v0,v0,432
80000048:	00621021 	addu	v0,v1,v0
8000004c:	8c430000 	lw	v1,0(v0)
80000050:	8fc20018 	lw	v0,24(s8)
80000054:	0043102b 	sltu	v0,v0,v1
80000058:	14400005 	bnez	v0,80000070 <bsearchr+0x70>
8000005c:	00000000 	nop
80000060:	8fc20000 	lw	v0,0(s8)
80000064:	afc20010 	sw	v0,16(s8)
80000068:	10000004 	b	8000007c <bsearchr+0x7c>
8000006c:	00000000 	nop
80000070:	8fc20000 	lw	v0,0(s8)
80000074:	2442ffff 	addiu	v0,v0,-1
80000078:	afc20014 	sw	v0,20(s8)
8000007c:	8fc30010 	lw	v1,16(s8)
80000080:	8fc20014 	lw	v0,20(s8)
80000084:	0062102a 	slt	v0,v1,v0
80000088:	1440ffe5 	bnez	v0,80000020 <bsearchr+0x20>
8000008c:	00000000 	nop
80000090:	8fc20010 	lw	v0,16(s8)
80000094:	03c0e825 	move	sp,s8
80000098:	8fbe000c 	lw	s8,12(sp)
8000009c:	27bd0010 	addiu	sp,sp,16
800000a0:	03e00008 	jr	ra
800000a4:	00000000 	nop

800000a8 <main>:
800000a8:	27bdffe0 	addiu	sp,sp,-32
800000ac:	afbf001c 	sw	ra,28(sp)
800000b0:	afbe0018 	sw	s8,24(sp)
800000b4:	03a0f025 	move	s8,sp
800000b8:	afc00010 	sw	zero,16(s8)
800000bc:	1000000e 	b	800000f8 <main+0x50>
800000c0:	00000000 	nop
800000c4:	8fc30010 	lw	v1,16(s8)
800000c8:	8fc20010 	lw	v0,16(s8)
800000cc:	70621002 	mul	v0,v1,v0
800000d0:	00402025 	move	a0,v0
800000d4:	3c028001 	lui	v0,0x8001
800000d8:	8fc30010 	lw	v1,16(s8)
800000dc:	00031880 	sll	v1,v1,0x2
800000e0:	244201b0 	addiu	v0,v0,432
800000e4:	00621021 	addu	v0,v1,v0
800000e8:	ac440000 	sw	a0,0(v0)
800000ec:	8fc20010 	lw	v0,16(s8)
800000f0:	24420001 	addiu	v0,v0,1
800000f4:	afc20010 	sw	v0,16(s8)
800000f8:	8fc30010 	lw	v1,16(s8)
800000fc:	3c020001 	lui	v0,0x1
80000100:	0062102a 	slt	v0,v1,v0
80000104:	1440ffef 	bnez	v0,800000c4 <main+0x1c>
80000108:	00000000 	nop
8000010c:	afc00010 	sw	zero,16(s8)
80000110:	10000016 	b	8000016c <main+0xc4>
80000114:	00000000 	nop
80000118:	3c028001 	lui	v0,0x8001
8000011c:	8fc30010 	lw	v1,16(s8)
80000120:	00031880 	sll	v1,v1,0x2
80000124:	2442019c 	addiu	v0,v0,412
80000128:	00621021 	addu	v0,v1,v0
8000012c:	8c420000 	lw	v0,0(v0)
80000130:	00002025 	move	a0,zero
80000134:	3405ffff 	li	a1,0xffff
80000138:	00403025 	move	a2,v0
8000013c:	0c000000 	jal	80000000 <bsearchr>
80000140:	00000000 	nop
80000144:	00402025 	move	a0,v0
80000148:	3c028005 	lui	v0,0x8005
8000014c:	8fc30010 	lw	v1,16(s8)
80000150:	00031880 	sll	v1,v1,0x2
80000154:	244201d4 	addiu	v0,v0,468
80000158:	00621021 	addu	v0,v1,v0
8000015c:	ac440000 	sw	a0,0(v0)
80000160:	8fc20010 	lw	v0,16(s8)
80000164:	24420001 	addiu	v0,v0,1
80000168:	afc20010 	sw	v0,16(s8)
8000016c:	8fc30010 	lw	v1,16(s8)
80000170:	3c020004 	lui	v0,0x4
80000174:	0062102a 	slt	v0,v1,v0
80000178:	1440ffe7 	bnez	v0,80000118 <main+0x70>
8000017c:	00000000 	nop
80000180:	00001025 	move	v0,zero
80000184:	03c0e825 	move	sp,s8
80000188:	8fbf001c 	lw	ra,28(sp)
8000018c:	8fbe0018 	lw	s8,24(sp)
80000190:	27bd0020 	addiu	sp,sp,32
80000194:	03e00008 	jr	ra
80000198:	00000000 	nop
